target datalayout = "e-m:e-p270:32:32-p271:32:32-p272:64:64-i64:64-i128:128-f80:128-n8:16:32:64-S128"
target triple = "x86_64-pc-linux-gnu"

%"class.Assimp::RemoveVCProcess" = type { %"class.Assimp::BaseProcess", i32, ptr }
%"class.Assimp::BaseProcess" = type { ptr, ptr, ptr }

@.str.8 = private unnamed_addr constant [13 x i8] c"PP_RVC_FLAGS\00", align 1
@.str.9 = private unnamed_addr constant [49 x i8] c"RemoveVCProcess: AI_CONFIG_PP_RVC_FLAGS is zero.\00", align 1

; Function Attrs: mustprogress uwtable
define void @_ZN6Assimp15RemoveVCProcess15SetupPropertiesEPKNS_8ImporterE(ptr noundef nonnull align 8 dereferenceable(40) %0, ptr noundef %1) unnamed_addr #2 align 2 {
  %3 = alloca ptr, align 8
  %4 = alloca ptr, align 8
  store ptr %0, ptr %3, align 8
  store ptr %1, ptr %4, align 8
  %5 = load ptr, ptr %3, align 8
  %6 = load ptr, ptr %4, align 8
  %7 = call noundef i32 @_ZNK6Assimp8Importer18GetPropertyIntegerEPKci(ptr noundef nonnull align 8 dereferenceable(8) %6, ptr noundef @.str.8, i32 noundef 0)
  %8 = getelementptr inbounds nuw %"class.Assimp::RemoveVCProcess", ptr %5, i32 0, i32 1
  store i32 %7, ptr %8, align 8
  %9 = getelementptr inbounds nuw %"class.Assimp::RemoveVCProcess", ptr %5, i32 0, i32 1
  %10 = load i32, ptr %9, align 8
  %11 = icmp ne i32 %10, 0
  br i1 %11, label %14, label %12

12:                                               ; preds = %2
  %13 = call noundef ptr @_ZN6Assimp13DefaultLogger3getEv()
  call void @_ZN6Assimp6Logger4warnEPKc(ptr noundef nonnull align 8 dereferenceable(12) %13, ptr noundef @.str.9)
  br label %14

14:                                               ; preds = %12, %2
  ret void
}