; Function Attrs: mustprogress uwtable
define void @_ZN6Assimp15RemoveVCProcess15SetupPropertiesEPKNS_8ImporterE(ptr noundef nonnull writeonly align 8 captures(none) dereferenceable(40) initializes((24, 28)) %0, ptr noundef nonnull %1) unnamed_addr #3 align 2 {
  %3 = tail call noundef i32 @_ZNK6Assimp8Importer18GetPropertyIntegerEPKci(ptr noundef nonnull align 8 dereferenceable(8) %1, ptr noundef nonnull @.str.8, i32 noundef 0)
  %4 = getelementptr inbounds nuw i8, ptr %0, i64 24
  store i32 %3, ptr %4, align 8
  %.not = icmp eq i32 %3, 0
  br i1 %.not, label %5, label %7

5:                                                ; preds = %2
  %6 = tail call noundef ptr @_ZN6Assimp13DefaultLogger3getEv()
  tail call void @_ZN6Assimp6Logger4warnEPKc(ptr noundef nonnull align 8 dereferenceable(12) %6, ptr noundef nonnull @.str.9)
  br label %7

7:                                                ; preds = %5, %2
  ret void
}